(dp0
S'prevent'
p1
S's'
p2
sS'none'
p3
g2
sS'nobody'
p4
g2
sS'no'
p5
g2
sS'never'
p6
g2
sS'neglected'
p7
g2
sS'except'
p8
g2
sS'refused'
p9
g2
sS"n't"
p10
g2
sS'nothing'
p11
g2
sS'absence'
p12
g2
sS'without'
p13
g2
sS'nowhere'
p14
g2
sS'not'
p15
g2
sS'fail'
p16
g2
sS'save'
p17
g2
sS'nor'
p18
g2
s.